target datalayout = "e-m:e-p270:32:32-p271:32:32-p272:64:64-i64:64-i128:128-f80:128-n8:16:32:64-S128"
target triple = "x86_64-pc-linux-gnu"

%struct.pmix_hash_type_methods_t = type { ptr, ptr }
%struct.pmix_hash_table_t = type { %struct.pmix_object_t, ptr, ptr, i64, i64, i64, i32, i32, i32, i32, ptr }
%struct.pmix_object_t = type { %union.pthread_mutex_t, ptr, i32, %struct.pmix_tma }
%union.pthread_mutex_t = type { %struct.__pthread_mutex_s }
%struct.__pthread_mutex_s = type { i32, i32, i32, i32, i32, i16, i16, %struct.__pthread_internal_list }
%struct.__pthread_internal_list = type { ptr, ptr }
%struct.pmix_tma = type { ptr, ptr, ptr, ptr, ptr, ptr, ptr, ptr }
%struct.pmix_hash_element_t = type { i32, %union.anon, ptr, ptr }
%union.anon = type { %struct.anon }
%struct.anon = type { ptr, i64 }

; Function Attrs: nounwind uwtable
define i32 @pmix_hash_table_remove_all(ptr noundef %0) #0 {
  %2 = alloca ptr, align 8
  %3 = alloca i64, align 8
  %4 = alloca ptr, align 8
  store ptr %0, ptr %2, align 8, !tbaa !3
  call void @llvm.lifetime.start.p0(i64 8, ptr %3) #9
  store i64 0, ptr %3, align 8, !tbaa !28
  br label %5

5:                                                ; preds = %45, %1
  %6 = load i64, ptr %3, align 8, !tbaa !28
  %7 = load ptr, ptr %2, align 8, !tbaa !3
  %8 = getelementptr inbounds nuw %struct.pmix_hash_table_t, ptr %7, i32 0, i32 3
  %9 = load i64, ptr %8, align 8, !tbaa !20
  %10 = icmp ult i64 %6, %9
  br i1 %10, label %11, label %48

11:                                               ; preds = %5
  call void @llvm.lifetime.start.p0(i64 8, ptr %4) #9
  %12 = load ptr, ptr %2, align 8, !tbaa !3
  %13 = getelementptr inbounds nuw %struct.pmix_hash_table_t, ptr %12, i32 0, i32 2
  %14 = load ptr, ptr %13, align 8, !tbaa !8
  %15 = load i64, ptr %3, align 8, !tbaa !28
  %16 = getelementptr inbounds nuw %struct.pmix_hash_element_t, ptr %14, i64 %15
  store ptr %16, ptr %4, align 8, !tbaa !34
  %17 = load ptr, ptr %4, align 8, !tbaa !34
  %18 = getelementptr inbounds nuw %struct.pmix_hash_element_t, ptr %17, i32 0, i32 0
  %19 = load i32, ptr %18, align 8, !tbaa !35
  %20 = icmp ne i32 %19, 0
  br i1 %20, label %21, label %40

21:                                               ; preds = %11
  %22 = load ptr, ptr %2, align 8, !tbaa !3
  %23 = getelementptr inbounds nuw %struct.pmix_hash_table_t, ptr %22, i32 0, i32 10
  %24 = load ptr, ptr %23, align 8, !tbaa !25
  %25 = icmp ne ptr %24, null
  br i1 %25, label %26, label %40

26:                                               ; preds = %21
  %27 = load ptr, ptr %2, align 8, !tbaa !3
  %28 = getelementptr inbounds nuw %struct.pmix_hash_table_t, ptr %27, i32 0, i32 10
  %29 = load ptr, ptr %28, align 8, !tbaa !25
  %30 = getelementptr inbounds nuw %struct.pmix_hash_type_methods_t, ptr %29, i32 0, i32 0
  %31 = load ptr, ptr %30, align 8, !tbaa !37
  %32 = icmp ne ptr %31, null
  br i1 %32, label %33, label %40

33:                                               ; preds = %26
  %34 = load ptr, ptr %2, align 8, !tbaa !3
  %35 = getelementptr inbounds nuw %struct.pmix_hash_table_t, ptr %34, i32 0, i32 10
  %36 = load ptr, ptr %35, align 8, !tbaa !25
  %37 = getelementptr inbounds nuw %struct.pmix_hash_type_methods_t, ptr %36, i32 0, i32 0
  %38 = load ptr, ptr %37, align 8, !tbaa !37
  %39 = load ptr, ptr %4, align 8, !tbaa !34
  call void %38(ptr noundef %39)
  br label %40

40:                                               ; preds = %33, %26, %21, %11
  %41 = load ptr, ptr %4, align 8, !tbaa !34
  %42 = getelementptr inbounds nuw %struct.pmix_hash_element_t, ptr %41, i32 0, i32 0
  store i32 0, ptr %42, align 8, !tbaa !35
  %43 = load ptr, ptr %4, align 8, !tbaa !34
  %44 = getelementptr inbounds nuw %struct.pmix_hash_element_t, ptr %43, i32 0, i32 3
  store ptr null, ptr %44, align 8, !tbaa !39
  call void @llvm.lifetime.end.p0(i64 8, ptr %4) #9
  br label %45

45:                                               ; preds = %40
  %46 = load i64, ptr %3, align 8, !tbaa !28
  %47 = add i64 %46, 1
  store i64 %47, ptr %3, align 8, !tbaa !28
  br label %5, !llvm.loop !40

48:                                               ; preds = %5
  %49 = load ptr, ptr %2, align 8, !tbaa !3
  %50 = getelementptr inbounds nuw %struct.pmix_hash_table_t, ptr %49, i32 0, i32 4
  store i64 0, ptr %50, align 8, !tbaa !19
  %51 = load ptr, ptr %2, align 8, !tbaa !3
  %52 = getelementptr inbounds nuw %struct.pmix_hash_table_t, ptr %51, i32 0, i32 10
  store ptr null, ptr %52, align 8, !tbaa !25
  call void @llvm.lifetime.end.p0(i64 8, ptr %3) #9
  ret i32 0
}