; Function Attrs: nounwind uwtable
define noundef i32 @pmix_hash_table_remove_all(ptr noundef captures(none) %0) local_unnamed_addr #1 {
  %2 = getelementptr inbounds nuw i8, ptr %0, i64 136
  %3 = load i64, ptr %2, align 8, !tbaa !11
  %.not18 = icmp eq i64 %3, 0
  br i1 %.not18, label %._crit_edge, label %.lr.ph

.lr.ph:                                           ; preds = %1
  %4 = getelementptr inbounds nuw i8, ptr %0, i64 128
  %5 = getelementptr inbounds nuw i8, ptr %0, i64 176
  br label %6

6:                                                ; preds = %.lr.ph, %16
  %7 = phi i64 [ %3, %.lr.ph ], [ %17, %16 ]
  %.017 = phi i64 [ 0, %.lr.ph ], [ %19, %16 ]
  %8 = load ptr, ptr %4, align 8, !tbaa !17
  %9 = getelementptr inbounds nuw %struct.pmix_hash_element_t, ptr %8, i64 %.017
  %10 = load i32, ptr %9, align 8, !tbaa !18
  %.not = icmp eq i32 %10, 0
  br i1 %.not, label %16, label %11

11:                                               ; preds = %6
  %12 = load ptr, ptr %5, align 8, !tbaa !21
  %.not15 = icmp eq ptr %12, null
  br i1 %.not15, label %16, label %13

13:                                               ; preds = %11
  %14 = load ptr, ptr %12, align 8, !tbaa !22
  %.not16 = icmp eq ptr %14, null
  br i1 %.not16, label %16, label %15

15:                                               ; preds = %13
  tail call void %14(ptr noundef nonnull %9) #13
  %.pre = load i64, ptr %2, align 8, !tbaa !11
  br label %16

16:                                               ; preds = %15, %13, %11, %6
  %17 = phi i64 [ %.pre, %15 ], [ %7, %13 ], [ %7, %11 ], [ %7, %6 ]
  store i32 0, ptr %9, align 8, !tbaa !18
  %18 = getelementptr inbounds nuw i8, ptr %9, i64 32
  store ptr null, ptr %18, align 8, !tbaa !24
  %19 = add nuw i64 %.017, 1
  %20 = icmp ult i64 %19, %17
  br i1 %20, label %6, label %._crit_edge, !llvm.loop !25

._crit_edge:                                      ; preds = %16, %1
  %21 = getelementptr inbounds nuw i8, ptr %0, i64 144
  store i64 0, ptr %21, align 8, !tbaa !27
  %22 = getelementptr inbounds nuw i8, ptr %0, i64 176
  store ptr null, ptr %22, align 8, !tbaa !21
  ret i32 0
}